; Function Attrs: nofree norecurse nosync nounwind memory(argmem: readwrite) uwtable
define nonnull ptr @lv_cache_entry_acquire_data(ptr noundef captures(address_is_null, ret: address, provenance) %0) local_unnamed_addr #1 {
  %.not = icmp eq ptr %0, null
  br i1 %.not, label %.preheader, label %lv_cache_entry_get_data.exit

.preheader:                                       ; preds = %1, %.preheader
  br label %.preheader

lv_cache_entry_get_data.exit:                     ; preds = %1
  %2 = getelementptr inbounds nuw i8, ptr %0, i64 8
  %3 = load i32, ptr %2, align 8, !tbaa !3
  %4 = add nsw i32 %3, 1
  store i32 %4, ptr %2, align 8, !tbaa !3
  %5 = getelementptr inbounds nuw i8, ptr %0, i64 12
  %6 = load i32, ptr %5, align 4, !tbaa !11
  %7 = zext i32 %6 to i64
  %8 = sub nsw i64 0, %7
  %9 = getelementptr inbounds i8, ptr %0, i64 %8
  ret ptr %9
}